(dp0
S'legend_check_box'
p1
I01
sS's22_check_box'
p2
I00
sS's11_check_box'
p3
I01
sS'touchtoneFileName'
p4
V../examples/horn.s2p
p5
sS'smith_radius_num_box'
p6
F1.0
sS's21_check_box'
p7
I00
sS's12_check_box'
p8
I00
s.